; Function Attrs: mustprogress nounwind uwtable
define void @_ZN6LibRaw18recycle_datastreamEv(ptr noundef nonnull align 8 captures(none) dereferenceable(767680) %0) local_unnamed_addr #10 align 2 {
  %2 = getelementptr inbounds nuw i8, ptr %0, i64 381416
  %3 = load ptr, ptr %2, align 8, !tbaa !98
  %.not = icmp eq ptr %3, null
  %4 = getelementptr inbounds nuw i8, ptr %0, i64 381432
  %5 = load i32, ptr %4, align 8
  %.not1 = icmp eq i32 %5, 0
  %or.cond = select i1 %.not, i1 true, i1 %.not1
  br i1 %or.cond, label %10, label %6

6:                                                ; preds = %1
  %7 = load ptr, ptr %3, align 8, !tbaa !99
  %8 = getelementptr inbounds nuw i8, ptr %7, i64 8
  %9 = load ptr, ptr %8, align 8
  tail call void %9(ptr noundef nonnull align 8 dereferenceable(8) %3) #30
  store ptr null, ptr %2, align 8, !tbaa !98
  br label %10

10:                                               ; preds = %6, %1
  store i32 0, ptr %4, align 8, !tbaa !105
  ret void
}